; Function Attrs: mustprogress nofree norecurse nounwind ssp willreturn memory(read, inaccessiblemem: none) uwtable
define noundef zeroext i1 @_ZN6open3d7utility16StringStartsWithERKNSt7__cxx1112basic_stringIcSt11char_traitsIcESaIcEEES8_(ptr noundef nonnull readonly align 8 captures(none) dereferenceable(32) %0, ptr noundef nonnull readonly align 8 captures(none) dereferenceable(32) %1) local_unnamed_addr #11 personality ptr @__gxx_personality_v0 {
  %3 = getelementptr inbounds nuw i8, ptr %0, i64 8
  %4 = load i64, ptr %3, align 8, !tbaa !12
  %5 = getelementptr inbounds nuw i8, ptr %1, i64 8
  %6 = load i64, ptr %5, align 8, !tbaa !12
  %.not = icmp ult i64 %4, %6
  br i1 %.not, label %_ZNKSt7__cxx1112basic_stringIcSt11char_traitsIcESaIcEE7compareEmmRKS4_.exit, label %7

7:                                                ; preds = %2
  %8 = icmp eq i64 %6, 0
  br i1 %8, label %_ZNSt11char_traitsIcE7compareEPKcS2_m.exit.thread.i, label %_ZNSt11char_traitsIcE7compareEPKcS2_m.exit.i

_ZNSt11char_traitsIcE7compareEPKcS2_m.exit.i:     ; preds = %7
  %9 = load ptr, ptr %1, align 8, !tbaa !4
  %10 = load ptr, ptr %0, align 8, !tbaa !4
  %bcmp = tail call i32 @bcmp(ptr %10, ptr %9, i64 %6)
  %.not.i = icmp eq i32 %bcmp, 0
  br i1 %.not.i, label %_ZNSt11char_traitsIcE7compareEPKcS2_m.exit.thread.i, label %_ZNKSt7__cxx1112basic_stringIcSt11char_traitsIcESaIcEE7compareEmmRKS4_.exit

_ZNSt11char_traitsIcE7compareEPKcS2_m.exit.thread.i: ; preds = %_ZNSt11char_traitsIcE7compareEPKcS2_m.exit.i, %7
  br label %_ZNKSt7__cxx1112basic_stringIcSt11char_traitsIcESaIcEE7compareEmmRKS4_.exit

_ZNKSt7__cxx1112basic_stringIcSt11char_traitsIcESaIcEE7compareEmmRKS4_.exit: ; preds = %_ZNSt11char_traitsIcE7compareEPKcS2_m.exit.thread.i, %_ZNSt11char_traitsIcE7compareEPKcS2_m.exit.i, %2
  %11 = phi i1 [ false, %2 ], [ false, %_ZNSt11char_traitsIcE7compareEPKcS2_m.exit.i ], [ true, %_ZNSt11char_traitsIcE7compareEPKcS2_m.exit.thread.i ]
  ret i1 %11
}